   1              		.cpu cortex-m0
   2              		.fpu softvfp
   3              		.eabi_attribute 20, 1
   4              		.eabi_attribute 21, 1
   5              		.eabi_attribute 23, 3
   6              		.eabi_attribute 24, 1
   7              		.eabi_attribute 25, 1
   8              		.eabi_attribute 26, 1
   9              		.eabi_attribute 30, 6
  10              		.eabi_attribute 34, 0
  11              		.eabi_attribute 18, 4
  12              		.code	16
  13              		.file	"GPIO1.c"
  14              		.text
  15              	.Ltext0:
  16              		.cfi_sections	.debug_frame
  17              		.section	.bss.DeviceDataPrv__DEFAULT_RTOS_ALLOC,"aw",%nobits
  18              		.align	2
  21              	DeviceDataPrv__DEFAULT_RTOS_ALLOC:
  22 0000 00000000 		.space	4
  23              		.section	.text.GPIO1_Init,"ax",%progbits
  24              		.align	2
  25              		.global	GPIO1_Init
  26              		.code	16
  27              		.thumb_func
  29              	GPIO1_Init:
  30              	.LFB0:
  31              		.file 1 "../Generated_Code/GPIO1.c"
   1:../Generated_Code/GPIO1.c **** /* ###################################################################
   2:../Generated_Code/GPIO1.c **** **     This component module is generated by Processor Expert. Do not modify it.
   3:../Generated_Code/GPIO1.c **** **     Filename    : GPIO1.c
   4:../Generated_Code/GPIO1.c **** **     Project     : ProcessorExpert
   5:../Generated_Code/GPIO1.c **** **     Processor   : MKL25Z128VLK4
   6:../Generated_Code/GPIO1.c **** **     Component   : GPIO_LDD
   7:../Generated_Code/GPIO1.c **** **     Version     : Component 01.128, Driver 01.08, CPU db: 3.00.000
   8:../Generated_Code/GPIO1.c **** **     Compiler    : GNU C Compiler
   9:../Generated_Code/GPIO1.c **** **     Date/Time   : 2017-02-08, 21:29, # CodeGen: 19
  10:../Generated_Code/GPIO1.c **** **     Abstract    :
  11:../Generated_Code/GPIO1.c **** **         The HAL GPIO component will provide a low level API for unified
  12:../Generated_Code/GPIO1.c **** **         access to general purpose digital input/output pins across
  13:../Generated_Code/GPIO1.c **** **         various device designs.
  14:../Generated_Code/GPIO1.c **** **
  15:../Generated_Code/GPIO1.c **** **         RTOS drivers using HAL GPIO API will be simpler and more
  16:../Generated_Code/GPIO1.c **** **         portable to various microprocessors.
  17:../Generated_Code/GPIO1.c **** **     Settings    :
  18:../Generated_Code/GPIO1.c **** **          Component name                                 : GPIO1
  19:../Generated_Code/GPIO1.c **** **          Port                                           : PTC
  20:../Generated_Code/GPIO1.c **** **          Port width                                     : 32 bits
  21:../Generated_Code/GPIO1.c **** **          Mask of allocated pins                         : 3000
  22:../Generated_Code/GPIO1.c **** **          Interrupt service/event                        : Disabled
  23:../Generated_Code/GPIO1.c **** **          Bit fields                                     : 2
  24:../Generated_Code/GPIO1.c **** **            Bit field                                    : 
  25:../Generated_Code/GPIO1.c **** **              Field name                                 : DRVEN
  26:../Generated_Code/GPIO1.c **** **              Pins                                       : 1
  27:../Generated_Code/GPIO1.c **** **                Pin                                      : 
  28:../Generated_Code/GPIO1.c **** **                  Pin                                    : PTC12/TPM_CLKIN0
  29:../Generated_Code/GPIO1.c **** **                  Pin signal                             : 
  30:../Generated_Code/GPIO1.c **** **                  Initial pin direction                  : Output
  31:../Generated_Code/GPIO1.c **** **                    Initial output state                 : 0
  32:../Generated_Code/GPIO1.c **** **                  Initial pin event                      : Disabled
  33:../Generated_Code/GPIO1.c **** **            Bit field                                    : 
  34:../Generated_Code/GPIO1.c **** **              Field name                                 : RESETB
  35:../Generated_Code/GPIO1.c **** **              Pins                                       : 1
  36:../Generated_Code/GPIO1.c **** **                Pin                                      : 
  37:../Generated_Code/GPIO1.c **** **                  Pin                                    : PTC13/TPM_CLKIN1
  38:../Generated_Code/GPIO1.c **** **                  Pin signal                             : 
  39:../Generated_Code/GPIO1.c **** **                  Initial pin direction                  : Output
  40:../Generated_Code/GPIO1.c **** **                    Initial output state                 : 0
  41:../Generated_Code/GPIO1.c **** **                  Initial pin event                      : Disabled
  42:../Generated_Code/GPIO1.c **** **          Initialization                                 : 
  43:../Generated_Code/GPIO1.c **** **            Auto initialization                          : yes
  44:../Generated_Code/GPIO1.c **** **            Event mask                                   : 
  45:../Generated_Code/GPIO1.c **** **              OnPortEvent                                : Disabled
  46:../Generated_Code/GPIO1.c **** **     Contents    :
  47:../Generated_Code/GPIO1.c **** **         Init            - LDD_TDeviceData* GPIO1_Init(LDD_TUserData *UserDataPtr);
  48:../Generated_Code/GPIO1.c **** **         SetFieldValue   - void GPIO1_SetFieldValue(LDD_TDeviceData *DeviceDataPtr, LDD_GPIO_TBit
  49:../Generated_Code/GPIO1.c **** **         GetFieldValue   - GPIO1_TFieldValue GPIO1_GetFieldValue(LDD_TDeviceData *DeviceDataPtr,.
  50:../Generated_Code/GPIO1.c **** **         ClearFieldBits  - void GPIO1_ClearFieldBits(LDD_TDeviceData *DeviceDataPtr, LDD_GPIO_TBi
  51:../Generated_Code/GPIO1.c **** **         SetFieldBits    - void GPIO1_SetFieldBits(LDD_TDeviceData *DeviceDataPtr, LDD_GPIO_TBitF
  52:../Generated_Code/GPIO1.c **** **         ToggleFieldBits - void GPIO1_ToggleFieldBits(LDD_TDeviceData *DeviceDataPtr, LDD_GPIO_TB
  53:../Generated_Code/GPIO1.c **** **
  54:../Generated_Code/GPIO1.c **** **     Copyright : 1997 - 2014 Freescale Semiconductor, Inc. 
  55:../Generated_Code/GPIO1.c **** **     All Rights Reserved.
  56:../Generated_Code/GPIO1.c **** **     
  57:../Generated_Code/GPIO1.c **** **     Redistribution and use in source and binary forms, with or without modification,
  58:../Generated_Code/GPIO1.c **** **     are permitted provided that the following conditions are met:
  59:../Generated_Code/GPIO1.c **** **     
  60:../Generated_Code/GPIO1.c **** **     o Redistributions of source code must retain the above copyright notice, this list
  61:../Generated_Code/GPIO1.c **** **       of conditions and the following disclaimer.
  62:../Generated_Code/GPIO1.c **** **     
  63:../Generated_Code/GPIO1.c **** **     o Redistributions in binary form must reproduce the above copyright notice, this
  64:../Generated_Code/GPIO1.c **** **       list of conditions and the following disclaimer in the documentation and/or
  65:../Generated_Code/GPIO1.c **** **       other materials provided with the distribution.
  66:../Generated_Code/GPIO1.c **** **     
  67:../Generated_Code/GPIO1.c **** **     o Neither the name of Freescale Semiconductor, Inc. nor the names of its
  68:../Generated_Code/GPIO1.c **** **       contributors may be used to endorse or promote products derived from this
  69:../Generated_Code/GPIO1.c **** **       software without specific prior written permission.
  70:../Generated_Code/GPIO1.c **** **     
  71:../Generated_Code/GPIO1.c **** **     THIS SOFTWARE IS PROVIDED BY THE COPYRIGHT HOLDERS AND CONTRIBUTORS "AS IS" AND
  72:../Generated_Code/GPIO1.c **** **     ANY EXPRESS OR IMPLIED WARRANTIES, INCLUDING, BUT NOT LIMITED TO, THE IMPLIED
  73:../Generated_Code/GPIO1.c **** **     WARRANTIES OF MERCHANTABILITY AND FITNESS FOR A PARTICULAR PURPOSE ARE
  74:../Generated_Code/GPIO1.c **** **     DISCLAIMED. IN NO EVENT SHALL THE COPYRIGHT HOLDER OR CONTRIBUTORS BE LIABLE FOR
  75:../Generated_Code/GPIO1.c **** **     ANY DIRECT, INDIRECT, INCIDENTAL, SPECIAL, EXEMPLARY, OR CONSEQUENTIAL DAMAGES
  76:../Generated_Code/GPIO1.c **** **     (INCLUDING, BUT NOT LIMITED TO, PROCUREMENT OF SUBSTITUTE GOODS OR SERVICES;
  77:../Generated_Code/GPIO1.c **** **     LOSS OF USE, DATA, OR PROFITS; OR BUSINESS INTERRUPTION) HOWEVER CAUSED AND ON
  78:../Generated_Code/GPIO1.c **** **     ANY THEORY OF LIABILITY, WHETHER IN CONTRACT, STRICT LIABILITY, OR TORT
  79:../Generated_Code/GPIO1.c **** **     (INCLUDING NEGLIGENCE OR OTHERWISE) ARISING IN ANY WAY OUT OF THE USE OF THIS
  80:../Generated_Code/GPIO1.c **** **     SOFTWARE, EVEN IF ADVISED OF THE POSSIBILITY OF SUCH DAMAGE.
  81:../Generated_Code/GPIO1.c **** **     
  82:../Generated_Code/GPIO1.c **** **     http: www.freescale.com
  83:../Generated_Code/GPIO1.c **** **     mail: support@freescale.com
  84:../Generated_Code/GPIO1.c **** ** ###################################################################*/
  85:../Generated_Code/GPIO1.c **** /*!
  86:../Generated_Code/GPIO1.c **** ** @file GPIO1.c
  87:../Generated_Code/GPIO1.c **** ** @version 01.08
  88:../Generated_Code/GPIO1.c **** ** @brief
  89:../Generated_Code/GPIO1.c **** **         The HAL GPIO component will provide a low level API for unified
  90:../Generated_Code/GPIO1.c **** **         access to general purpose digital input/output pins across
  91:../Generated_Code/GPIO1.c **** **         various device designs.
  92:../Generated_Code/GPIO1.c **** **
  93:../Generated_Code/GPIO1.c **** **         RTOS drivers using HAL GPIO API will be simpler and more
  94:../Generated_Code/GPIO1.c **** **         portable to various microprocessors.
  95:../Generated_Code/GPIO1.c **** */         
  96:../Generated_Code/GPIO1.c **** /*!
  97:../Generated_Code/GPIO1.c **** **  @addtogroup GPIO1_module GPIO1 module documentation
  98:../Generated_Code/GPIO1.c **** **  @{
  99:../Generated_Code/GPIO1.c **** */         
 100:../Generated_Code/GPIO1.c **** 
 101:../Generated_Code/GPIO1.c **** /* MODULE GPIO1. */
 102:../Generated_Code/GPIO1.c **** 
 103:../Generated_Code/GPIO1.c **** #include "GPIO1.h"
 104:../Generated_Code/GPIO1.c **** /* {Default RTOS Adapter} No RTOS includes */
 105:../Generated_Code/GPIO1.c **** #include "IO_Map.h"
 106:../Generated_Code/GPIO1.c **** 
 107:../Generated_Code/GPIO1.c **** #ifdef __cplusplus
 108:../Generated_Code/GPIO1.c **** extern "C" {
 109:../Generated_Code/GPIO1.c **** #endif 
 110:../Generated_Code/GPIO1.c **** 
 111:../Generated_Code/GPIO1.c **** typedef struct {
 112:../Generated_Code/GPIO1.c ****   LDD_TUserData *UserData;             /* RTOS device data structure */
 113:../Generated_Code/GPIO1.c **** } GPIO1_TDeviceData, *GPIO1_TDeviceDataPtr; /* Device data structure type */
 114:../Generated_Code/GPIO1.c **** /* {Default RTOS Adapter} Static object used for simulation of dynamic driver memory allocation */
 115:../Generated_Code/GPIO1.c **** static GPIO1_TDeviceData DeviceDataPrv__DEFAULT_RTOS_ALLOC;
 116:../Generated_Code/GPIO1.c **** /*
 117:../Generated_Code/GPIO1.c **** ** ===================================================================
 118:../Generated_Code/GPIO1.c **** **     Method      :  GPIO1_Init (component GPIO_LDD)
 119:../Generated_Code/GPIO1.c **** */
 120:../Generated_Code/GPIO1.c **** /*!
 121:../Generated_Code/GPIO1.c **** **     @brief
 122:../Generated_Code/GPIO1.c **** **         This method initializes the associated peripheral(s) and the
 123:../Generated_Code/GPIO1.c **** **         component internal variables. The method is called
 124:../Generated_Code/GPIO1.c **** **         automatically as a part of the application initialization
 125:../Generated_Code/GPIO1.c **** **         code.
 126:../Generated_Code/GPIO1.c **** **     @param
 127:../Generated_Code/GPIO1.c **** **         UserDataPtr     - Pointer to the RTOS device
 128:../Generated_Code/GPIO1.c **** **                           structure. This pointer will be passed to
 129:../Generated_Code/GPIO1.c **** **                           all events as parameter.
 130:../Generated_Code/GPIO1.c **** **     @return
 131:../Generated_Code/GPIO1.c **** **                         - Pointer to the dynamically allocated private
 132:../Generated_Code/GPIO1.c **** **                           structure or NULL if there was an error.
 133:../Generated_Code/GPIO1.c **** */
 134:../Generated_Code/GPIO1.c **** /* ===================================================================*/
 135:../Generated_Code/GPIO1.c **** LDD_TDeviceData* GPIO1_Init(LDD_TUserData *UserDataPtr)
 136:../Generated_Code/GPIO1.c **** {
  32              		.loc 1 136 0
  33              		.cfi_startproc
  34 0000 80B5     		push	{r7, lr}
  35              	.LCFI0:
  36              		.cfi_def_cfa_offset 8
  37              		.cfi_offset 7, -8
  38              		.cfi_offset 14, -4
  39 0002 84B0     		sub	sp, sp, #16
  40              	.LCFI1:
  41              		.cfi_def_cfa_offset 24
  42 0004 00AF     		add	r7, sp, #0
  43              	.LCFI2:
  44              		.cfi_def_cfa_register 7
  45 0006 7860     		str	r0, [r7, #4]
 137:../Generated_Code/GPIO1.c ****   /* Allocate LDD device structure */
 138:../Generated_Code/GPIO1.c ****   GPIO1_TDeviceData *DeviceDataPrv;
 139:../Generated_Code/GPIO1.c **** 
 140:../Generated_Code/GPIO1.c ****   /* {Default RTOS Adapter} Driver memory allocation: Dynamic allocation is simulated by a pointer 
 141:../Generated_Code/GPIO1.c ****   DeviceDataPrv = &DeviceDataPrv__DEFAULT_RTOS_ALLOC;
  46              		.loc 1 141 0
  47 0008 154B     		ldr	r3, .L3
  48 000a FB60     		str	r3, [r7, #12]
 142:../Generated_Code/GPIO1.c ****   /* Save RTOS Device structure */
 143:../Generated_Code/GPIO1.c ****   DeviceDataPrv->UserData = UserDataPtr; /* Store the RTOS device structure */
  49              		.loc 1 143 0
  50 000c FB68     		ldr	r3, [r7, #12]
  51 000e 7A68     		ldr	r2, [r7, #4]
  52 0010 1A60     		str	r2, [r3]
 144:../Generated_Code/GPIO1.c ****   /* GPIOC_PDOR: PDO&=~0x3000 */
 145:../Generated_Code/GPIO1.c ****   GPIOC_PDOR &= (uint32_t)~(uint32_t)(GPIO_PDOR_PDO(0x3000));
  53              		.loc 1 145 0
  54 0012 144B     		ldr	r3, .L3+4
  55 0014 134A     		ldr	r2, .L3+4
  56 0016 1168     		ldr	r1, [r2]
  57 0018 134A     		ldr	r2, .L3+8
  58 001a 0A40     		and	r2, r1
  59 001c 1A60     		str	r2, [r3]
 146:../Generated_Code/GPIO1.c ****   /* GPIOC_PDDR: PDD|=0x3000 */
 147:../Generated_Code/GPIO1.c ****   GPIOC_PDDR |= GPIO_PDDR_PDD(0x3000);
  60              		.loc 1 147 0
  61 001e 114B     		ldr	r3, .L3+4
  62 0020 104A     		ldr	r2, .L3+4
  63 0022 5269     		ldr	r2, [r2, #20]
  64 0024 C021     		mov	r1, #192
  65 0026 8901     		lsl	r1, r1, #6
  66 0028 0A43     		orr	r2, r1
  67 002a 5A61     		str	r2, [r3, #20]
 148:../Generated_Code/GPIO1.c ****   /* Initialization of Port Control registers */
 149:../Generated_Code/GPIO1.c ****   /* PORTC_PCR12: ISF=0,MUX=1 */
 150:../Generated_Code/GPIO1.c ****   PORTC_PCR12 = (uint32_t)((PORTC_PCR12 & (uint32_t)~(uint32_t)(
  68              		.loc 1 150 0
  69 002c 0F4B     		ldr	r3, .L3+12
  70 002e 0F4A     		ldr	r2, .L3+12
  71 0030 116B     		ldr	r1, [r2, #48]
  72 0032 0F4A     		ldr	r2, .L3+16
  73 0034 0A40     		and	r2, r1
  74 0036 8021     		mov	r1, #128
  75 0038 4900     		lsl	r1, r1, #1
  76 003a 0A43     		orr	r2, r1
  77 003c 1A63     		str	r2, [r3, #48]
 151:../Generated_Code/GPIO1.c ****                  PORT_PCR_ISF_MASK |
 152:../Generated_Code/GPIO1.c ****                  PORT_PCR_MUX(0x06)
 153:../Generated_Code/GPIO1.c ****                 )) | (uint32_t)(
 154:../Generated_Code/GPIO1.c ****                  PORT_PCR_MUX(0x01)
 155:../Generated_Code/GPIO1.c ****                 ));
 156:../Generated_Code/GPIO1.c ****   /* PORTC_PCR13: ISF=0,MUX=1 */
 157:../Generated_Code/GPIO1.c ****   PORTC_PCR13 = (uint32_t)((PORTC_PCR13 & (uint32_t)~(uint32_t)(
  78              		.loc 1 157 0
  79 003e 0B4B     		ldr	r3, .L3+12
  80 0040 0A4A     		ldr	r2, .L3+12
  81 0042 516B     		ldr	r1, [r2, #52]
  82 0044 0A4A     		ldr	r2, .L3+16
  83 0046 0A40     		and	r2, r1
  84 0048 8021     		mov	r1, #128
  85 004a 4900     		lsl	r1, r1, #1
  86 004c 0A43     		orr	r2, r1
  87 004e 5A63     		str	r2, [r3, #52]
 158:../Generated_Code/GPIO1.c ****                  PORT_PCR_ISF_MASK |
 159:../Generated_Code/GPIO1.c ****                  PORT_PCR_MUX(0x06)
 160:../Generated_Code/GPIO1.c ****                 )) | (uint32_t)(
 161:../Generated_Code/GPIO1.c ****                  PORT_PCR_MUX(0x01)
 162:../Generated_Code/GPIO1.c ****                 ));
 163:../Generated_Code/GPIO1.c ****   /* Registration of the device structure */
 164:../Generated_Code/GPIO1.c ****   PE_LDD_RegisterDeviceStructure(PE_LDD_COMPONENT_GPIO1_ID,DeviceDataPrv);
  88              		.loc 1 164 0
  89 0050 084B     		ldr	r3, .L3+20
  90 0052 FA68     		ldr	r2, [r7, #12]
  91 0054 5A60     		str	r2, [r3, #4]
 165:../Generated_Code/GPIO1.c ****   return ((LDD_TDeviceData *)DeviceDataPrv);
  92              		.loc 1 165 0
  93 0056 FB68     		ldr	r3, [r7, #12]
 166:../Generated_Code/GPIO1.c **** }
  94              		.loc 1 166 0
  95 0058 181C     		mov	r0, r3
  96 005a BD46     		mov	sp, r7
  97 005c 04B0     		add	sp, sp, #16
  98              		@ sp needed for prologue
  99 005e 80BD     		pop	{r7, pc}
 100              	.L4:
 101              		.align	2
 102              	.L3:
 103 0060 00000000 		.word	DeviceDataPrv__DEFAULT_RTOS_ALLOC
 104 0064 80F00F40 		.word	1074786432
 105 0068 FFCFFFFF 		.word	-12289
 106 006c 00B00440 		.word	1074049024
 107 0070 FFF8FFFE 		.word	-16779009
 108 0074 00000000 		.word	PE_LDD_DeviceDataList
 109              		.cfi_endproc
 110              	.LFE0:
 112              		.section	.text.GPIO1_SetFieldValue,"ax",%progbits
 113              		.align	2
 114              		.global	GPIO1_SetFieldValue
 115              		.code	16
 116              		.thumb_func
 118              	GPIO1_SetFieldValue:
 119              	.LFB1:
 167:../Generated_Code/GPIO1.c **** 
 168:../Generated_Code/GPIO1.c **** /*
 169:../Generated_Code/GPIO1.c **** ** ===================================================================
 170:../Generated_Code/GPIO1.c **** **     Method      :  GPIO1_SetFieldValue (component GPIO_LDD)
 171:../Generated_Code/GPIO1.c **** */
 172:../Generated_Code/GPIO1.c **** /*!
 173:../Generated_Code/GPIO1.c **** **     @brief
 174:../Generated_Code/GPIO1.c **** **         This method sets the output data value of the specified bit
 175:../Generated_Code/GPIO1.c **** **         field.
 176:../Generated_Code/GPIO1.c **** **     @param
 177:../Generated_Code/GPIO1.c **** **         DeviceDataPtr   - Device data structure
 178:../Generated_Code/GPIO1.c **** **                           pointer returned by [Init] method.
 179:../Generated_Code/GPIO1.c **** **     @param
 180:../Generated_Code/GPIO1.c **** **         Field           - Bit field to write. Bit fields are
 181:../Generated_Code/GPIO1.c **** **                           defined during design time and for each bit
 182:../Generated_Code/GPIO1.c **** **                           field there is a generated constant.
 183:../Generated_Code/GPIO1.c **** **     @param
 184:../Generated_Code/GPIO1.c **** **         Value           - Aligned data value to writting to the
 185:../Generated_Code/GPIO1.c **** **                           specified bit field. The bit 0 corresponds
 186:../Generated_Code/GPIO1.c **** **                           with the pin which has index 0 within the
 187:../Generated_Code/GPIO1.c **** **                           given bit field, the bit 1 corresponds with
 188:../Generated_Code/GPIO1.c **** **                           the pin which has index 1 within the given
 189:../Generated_Code/GPIO1.c **** **                           bit field, etc.
 190:../Generated_Code/GPIO1.c **** */
 191:../Generated_Code/GPIO1.c **** /* ===================================================================*/
 192:../Generated_Code/GPIO1.c **** void GPIO1_SetFieldValue(LDD_TDeviceData *DeviceDataPtr, LDD_GPIO_TBitField Field, GPIO1_TFieldValu
 193:../Generated_Code/GPIO1.c **** {
 120              		.loc 1 193 0
 121              		.cfi_startproc
 122 0000 80B5     		push	{r7, lr}
 123              	.LCFI3:
 124              		.cfi_def_cfa_offset 8
 125              		.cfi_offset 7, -8
 126              		.cfi_offset 14, -4
 127 0002 84B0     		sub	sp, sp, #16
 128              	.LCFI4:
 129              		.cfi_def_cfa_offset 24
 130 0004 00AF     		add	r7, sp, #0
 131              	.LCFI5:
 132              		.cfi_def_cfa_register 7
 133 0006 F860     		str	r0, [r7, #12]
 134 0008 B960     		str	r1, [r7, #8]
 135 000a 7A60     		str	r2, [r7, #4]
 194:../Generated_Code/GPIO1.c ****   (void)DeviceDataPtr;                 /* Parameter is not used, suppress unused argument warning *
 195:../Generated_Code/GPIO1.c ****   switch (Field) {                     /* no break */
 136              		.loc 1 195 0
 137 000c BB68     		ldr	r3, [r7, #8]
 138 000e 002B     		cmp	r3, #0
 139 0010 02D0     		beq	.L7
 140 0012 012B     		cmp	r3, #1
 141 0014 0DD0     		beq	.L8
 142 0016 19E0     		b	.L10
 143              	.L7:
 196:../Generated_Code/GPIO1.c ****     case DRVEN: {                      /* bit field #0 */
 197:../Generated_Code/GPIO1.c ****       GPIO_PDD_SetPortDataOutput(GPIO1_MODULE_BASE_ADDRESS,
 144              		.loc 1 197 0
 145 0018 0E4B     		ldr	r3, .L11
 146 001a 0E4A     		ldr	r2, .L11
 147 001c 1168     		ldr	r1, [r2]
 148 001e 0E4A     		ldr	r2, .L11+4
 149 0020 1140     		and	r1, r2
 150 0022 7A68     		ldr	r2, [r7, #4]
 151 0024 1003     		lsl	r0, r2, #12
 152 0026 8022     		mov	r2, #128
 153 0028 5201     		lsl	r2, r2, #5
 154 002a 0240     		and	r2, r0
 155 002c 0A43     		orr	r2, r1
 156 002e 1A60     		str	r2, [r3]
 198:../Generated_Code/GPIO1.c ****         (
 199:../Generated_Code/GPIO1.c ****           GPIO_PDD_GetPortDataOutput(GPIO1_MODULE_BASE_ADDRESS)
 200:../Generated_Code/GPIO1.c ****           & ((GPIO1_TPortValue)(~((GPIO1_TPortValue)GPIO1_DRVEN_MASK)))
 201:../Generated_Code/GPIO1.c ****         )
 202:../Generated_Code/GPIO1.c ****         | (
 203:../Generated_Code/GPIO1.c ****           ((GPIO1_TPortValue)(Value << GPIO1_DRVEN_START_BIT))
 204:../Generated_Code/GPIO1.c ****           & ((GPIO1_TPortValue)GPIO1_DRVEN_MASK)
 205:../Generated_Code/GPIO1.c ****         )
 206:../Generated_Code/GPIO1.c ****       );
 207:../Generated_Code/GPIO1.c ****       break;
 157              		.loc 1 207 0
 158 0030 0DE0     		b	.L5
 159              	.L8:
 208:../Generated_Code/GPIO1.c ****     }
 209:../Generated_Code/GPIO1.c ****     case RESETB: {                     /* bit field #1 */
 210:../Generated_Code/GPIO1.c ****       GPIO_PDD_SetPortDataOutput(GPIO1_MODULE_BASE_ADDRESS,
 160              		.loc 1 210 0
 161 0032 084B     		ldr	r3, .L11
 162 0034 074A     		ldr	r2, .L11
 163 0036 1168     		ldr	r1, [r2]
 164 0038 084A     		ldr	r2, .L11+8
 165 003a 1140     		and	r1, r2
 166 003c 7A68     		ldr	r2, [r7, #4]
 167 003e 5003     		lsl	r0, r2, #13
 168 0040 8022     		mov	r2, #128
 169 0042 9201     		lsl	r2, r2, #6
 170 0044 0240     		and	r2, r0
 171 0046 0A43     		orr	r2, r1
 172 0048 1A60     		str	r2, [r3]
 211:../Generated_Code/GPIO1.c ****         (
 212:../Generated_Code/GPIO1.c ****           GPIO_PDD_GetPortDataOutput(GPIO1_MODULE_BASE_ADDRESS)
 213:../Generated_Code/GPIO1.c ****           & ((GPIO1_TPortValue)(~((GPIO1_TPortValue)GPIO1_RESETB_MASK)))
 214:../Generated_Code/GPIO1.c ****         )
 215:../Generated_Code/GPIO1.c ****         | (
 216:../Generated_Code/GPIO1.c ****           ((GPIO1_TPortValue)(Value << GPIO1_RESETB_START_BIT))
 217:../Generated_Code/GPIO1.c ****           & ((GPIO1_TPortValue)GPIO1_RESETB_MASK)
 218:../Generated_Code/GPIO1.c ****         )
 219:../Generated_Code/GPIO1.c ****       );
 220:../Generated_Code/GPIO1.c ****       break;
 173              		.loc 1 220 0
 174 004a 00E0     		b	.L5
 175              	.L10:
 221:../Generated_Code/GPIO1.c ****     }
 222:../Generated_Code/GPIO1.c ****     default:
 223:../Generated_Code/GPIO1.c ****       break;                           /* Invalid Field is not treated, result is undefined */
 176              		.loc 1 223 0
 177 004c C046     		mov	r8, r8
 178              	.L5:
 224:../Generated_Code/GPIO1.c ****   } /* switch (Field) */
 225:../Generated_Code/GPIO1.c **** }
 179              		.loc 1 225 0
 180 004e BD46     		mov	sp, r7
 181 0050 04B0     		add	sp, sp, #16
 182              		@ sp needed for prologue
 183 0052 80BD     		pop	{r7, pc}
 184              	.L12:
 185              		.align	2
 186              	.L11:
 187 0054 80F00FF8 		.word	-133173120
 188 0058 FFEFFFFF 		.word	-4097
 189 005c FFDFFFFF 		.word	-8193
 190              		.cfi_endproc
 191              	.LFE1:
 193              		.section	.text.GPIO1_GetFieldValue,"ax",%progbits
 194              		.align	2
 195              		.global	GPIO1_GetFieldValue
 196              		.code	16
 197              		.thumb_func
 199              	GPIO1_GetFieldValue:
 200              	.LFB2:
 226:../Generated_Code/GPIO1.c **** 
 227:../Generated_Code/GPIO1.c **** /*
 228:../Generated_Code/GPIO1.c **** ** ===================================================================
 229:../Generated_Code/GPIO1.c **** **     Method      :  GPIO1_GetFieldValue (component GPIO_LDD)
 230:../Generated_Code/GPIO1.c **** */
 231:../Generated_Code/GPIO1.c **** /*!
 232:../Generated_Code/GPIO1.c **** **     @brief
 233:../Generated_Code/GPIO1.c **** **         This method returns the current input data of the specified
 234:../Generated_Code/GPIO1.c **** **         field.
 235:../Generated_Code/GPIO1.c **** **     @param
 236:../Generated_Code/GPIO1.c **** **         DeviceDataPtr   - Device data structure
 237:../Generated_Code/GPIO1.c **** **                           pointer returned by [Init] method.
 238:../Generated_Code/GPIO1.c **** **     @param
 239:../Generated_Code/GPIO1.c **** **         Field           - Bit field to reading. Bit fields are
 240:../Generated_Code/GPIO1.c **** **                           defined during design time and for each bit
 241:../Generated_Code/GPIO1.c **** **                           field there is a generated constant.
 242:../Generated_Code/GPIO1.c **** **     @return
 243:../Generated_Code/GPIO1.c **** **                         - Aligned current port input value masked for
 244:../Generated_Code/GPIO1.c **** **                           allocated pins of the field. The bit 0
 245:../Generated_Code/GPIO1.c **** **                           corresponds with the pin which has index 0
 246:../Generated_Code/GPIO1.c **** **                           within the given bit field, the bit 1
 247:../Generated_Code/GPIO1.c **** **                           corresponds with the pin which has index 1
 248:../Generated_Code/GPIO1.c **** **                           within the given bit field, etc.
 249:../Generated_Code/GPIO1.c **** */
 250:../Generated_Code/GPIO1.c **** /* ===================================================================*/
 251:../Generated_Code/GPIO1.c **** GPIO1_TFieldValue GPIO1_GetFieldValue(LDD_TDeviceData *DeviceDataPtr, LDD_GPIO_TBitField Field)
 252:../Generated_Code/GPIO1.c **** {
 201              		.loc 1 252 0
 202              		.cfi_startproc
 203 0000 80B5     		push	{r7, lr}
 204              	.LCFI6:
 205              		.cfi_def_cfa_offset 8
 206              		.cfi_offset 7, -8
 207              		.cfi_offset 14, -4
 208 0002 82B0     		sub	sp, sp, #8
 209              	.LCFI7:
 210              		.cfi_def_cfa_offset 16
 211 0004 00AF     		add	r7, sp, #0
 212              	.LCFI8:
 213              		.cfi_def_cfa_register 7
 214 0006 7860     		str	r0, [r7, #4]
 215 0008 3960     		str	r1, [r7]
 253:../Generated_Code/GPIO1.c ****   (void)DeviceDataPtr;                 /* Parameter is not used, suppress unused argument warning *
 254:../Generated_Code/GPIO1.c ****   switch (Field) {                     /* no break */
 216              		.loc 1 254 0
 217 000a 3B68     		ldr	r3, [r7]
 218 000c 002B     		cmp	r3, #0
 219 000e 02D0     		beq	.L15
 220 0010 012B     		cmp	r3, #1
 221 0012 07D0     		beq	.L16
 222 0014 0DE0     		b	.L18
 223              	.L15:
 255:../Generated_Code/GPIO1.c ****     case DRVEN: {                      /* bit field #0 */
 256:../Generated_Code/GPIO1.c ****       return
 257:../Generated_Code/GPIO1.c ****         (GPIO1_TFieldValue)(
 258:../Generated_Code/GPIO1.c ****           (
 259:../Generated_Code/GPIO1.c ****             GPIO_PDD_GetPortDataInput(GPIO1_MODULE_BASE_ADDRESS)
 224              		.loc 1 259 0
 225 0016 0A4B     		ldr	r3, .L19
 226 0018 1A69     		ldr	r2, [r3, #16]
 260:../Generated_Code/GPIO1.c ****             & (GPIO1_TPortValue)GPIO1_DRVEN_MASK
 227              		.loc 1 260 0
 228 001a 8023     		mov	r3, #128
 229 001c 5B01     		lsl	r3, r3, #5
 230 001e 1340     		and	r3, r2
 256:../Generated_Code/GPIO1.c ****       return
 231              		.loc 1 256 0
 232 0020 1B0B     		lsr	r3, r3, #12
 233 0022 08E0     		b	.L17
 234              	.L16:
 261:../Generated_Code/GPIO1.c ****           )
 262:../Generated_Code/GPIO1.c ****           >> GPIO1_DRVEN_START_BIT
 263:../Generated_Code/GPIO1.c ****         );
 264:../Generated_Code/GPIO1.c ****     }
 265:../Generated_Code/GPIO1.c ****     case RESETB: {                     /* bit field #1 */
 266:../Generated_Code/GPIO1.c ****       return
 267:../Generated_Code/GPIO1.c ****         (GPIO1_TFieldValue)(
 268:../Generated_Code/GPIO1.c ****           (
 269:../Generated_Code/GPIO1.c ****             GPIO_PDD_GetPortDataInput(GPIO1_MODULE_BASE_ADDRESS)
 235              		.loc 1 269 0
 236 0024 064B     		ldr	r3, .L19
 237 0026 1A69     		ldr	r2, [r3, #16]
 270:../Generated_Code/GPIO1.c ****             & (GPIO1_TPortValue)GPIO1_RESETB_MASK
 238              		.loc 1 270 0
 239 0028 8023     		mov	r3, #128
 240 002a 9B01     		lsl	r3, r3, #6
 241 002c 1340     		and	r3, r2
 266:../Generated_Code/GPIO1.c ****       return
 242              		.loc 1 266 0
 243 002e 5B0B     		lsr	r3, r3, #13
 244 0030 01E0     		b	.L17
 245              	.L18:
 271:../Generated_Code/GPIO1.c ****           )
 272:../Generated_Code/GPIO1.c ****           >> GPIO1_RESETB_START_BIT
 273:../Generated_Code/GPIO1.c ****         );
 274:../Generated_Code/GPIO1.c ****     }
 275:../Generated_Code/GPIO1.c ****     default:
 276:../Generated_Code/GPIO1.c ****       break;                           /* Invalid BitField is not treated, result is undefined */
 246              		.loc 1 276 0
 247 0032 C046     		mov	r8, r8
 277:../Generated_Code/GPIO1.c ****   } /* switch (Field) */
 278:../Generated_Code/GPIO1.c ****   return (GPIO1_TFieldValue)0U;
 248              		.loc 1 278 0
 249 0034 0023     		mov	r3, #0
 250              	.L17:
 279:../Generated_Code/GPIO1.c **** }
 251              		.loc 1 279 0
 252 0036 181C     		mov	r0, r3
 253 0038 BD46     		mov	sp, r7
 254 003a 02B0     		add	sp, sp, #8
 255              		@ sp needed for prologue
 256 003c 80BD     		pop	{r7, pc}
 257              	.L20:
 258 003e C046     		.align	2
 259              	.L19:
 260 0040 80F00FF8 		.word	-133173120
 261              		.cfi_endproc
 262              	.LFE2:
 264              		.section	.text.GPIO1_ClearFieldBits,"ax",%progbits
 265              		.align	2
 266              		.global	GPIO1_ClearFieldBits
 267              		.code	16
 268              		.thumb_func
 270              	GPIO1_ClearFieldBits:
 271              	.LFB3:
 280:../Generated_Code/GPIO1.c **** 
 281:../Generated_Code/GPIO1.c **** /*
 282:../Generated_Code/GPIO1.c **** ** ===================================================================
 283:../Generated_Code/GPIO1.c **** **     Method      :  GPIO1_ClearFieldBits (component GPIO_LDD)
 284:../Generated_Code/GPIO1.c **** */
 285:../Generated_Code/GPIO1.c **** /*!
 286:../Generated_Code/GPIO1.c **** **     @brief
 287:../Generated_Code/GPIO1.c **** **         This method drives the specified bits of the specified bit
 288:../Generated_Code/GPIO1.c **** **         field to the inactive level.
 289:../Generated_Code/GPIO1.c **** **     @param
 290:../Generated_Code/GPIO1.c **** **         DeviceDataPtr   - Device data structure
 291:../Generated_Code/GPIO1.c **** **                           pointer returned by [Init] method.
 292:../Generated_Code/GPIO1.c **** **     @param
 293:../Generated_Code/GPIO1.c **** **         Field           - Bit field to write. Bit fields are
 294:../Generated_Code/GPIO1.c **** **                           defined during design time and for each bit
 295:../Generated_Code/GPIO1.c **** **                           field there is a generated constant.
 296:../Generated_Code/GPIO1.c **** **     @param
 297:../Generated_Code/GPIO1.c **** **         Mask            - Aligned mask of bits to setting the
 298:../Generated_Code/GPIO1.c **** **                           inactive level. Each field pin has
 299:../Generated_Code/GPIO1.c **** **                           corresponding bit in the mask. Bit value 0
 300:../Generated_Code/GPIO1.c **** **                           means not selected bit, bit value 1 means
 301:../Generated_Code/GPIO1.c **** **                           selected bit. The bit 0 corresponds with
 302:../Generated_Code/GPIO1.c **** **                           the pin which has index 0 within the given
 303:../Generated_Code/GPIO1.c **** **                           bit field, the bit 1 corresponds with the
 304:../Generated_Code/GPIO1.c **** **                           pin which has index 1 within the given bit
 305:../Generated_Code/GPIO1.c **** **                           field, etc.
 306:../Generated_Code/GPIO1.c **** */
 307:../Generated_Code/GPIO1.c **** /* ===================================================================*/
 308:../Generated_Code/GPIO1.c **** void GPIO1_ClearFieldBits(LDD_TDeviceData *DeviceDataPtr, LDD_GPIO_TBitField Field, GPIO1_TFieldVal
 309:../Generated_Code/GPIO1.c **** {
 272              		.loc 1 309 0
 273              		.cfi_startproc
 274 0000 80B5     		push	{r7, lr}
 275              	.LCFI9:
 276              		.cfi_def_cfa_offset 8
 277              		.cfi_offset 7, -8
 278              		.cfi_offset 14, -4
 279 0002 84B0     		sub	sp, sp, #16
 280              	.LCFI10:
 281              		.cfi_def_cfa_offset 24
 282 0004 00AF     		add	r7, sp, #0
 283              	.LCFI11:
 284              		.cfi_def_cfa_register 7
 285 0006 F860     		str	r0, [r7, #12]
 286 0008 B960     		str	r1, [r7, #8]
 287 000a 7A60     		str	r2, [r7, #4]
 310:../Generated_Code/GPIO1.c ****   (void)DeviceDataPtr;                 /* Parameter is not used, suppress unused argument warning *
 311:../Generated_Code/GPIO1.c ****   switch (Field) {                     /* no break */
 288              		.loc 1 311 0
 289 000c BB68     		ldr	r3, [r7, #8]
 290 000e 002B     		cmp	r3, #0
 291 0010 02D0     		beq	.L23
 292 0012 012B     		cmp	r3, #1
 293 0014 08D0     		beq	.L24
 294 0016 0FE0     		b	.L26
 295              	.L23:
 312:../Generated_Code/GPIO1.c ****     case DRVEN: {                      /* bit field #0 */
 313:../Generated_Code/GPIO1.c ****       GPIO_PDD_ClearPortDataOutputMask(GPIO1_MODULE_BASE_ADDRESS,
 296              		.loc 1 313 0
 297 0018 094B     		ldr	r3, .L27
 298 001a 7A68     		ldr	r2, [r7, #4]
 299 001c 1103     		lsl	r1, r2, #12
 300 001e 8022     		mov	r2, #128
 301 0020 5201     		lsl	r2, r2, #5
 302 0022 0A40     		and	r2, r1
 303 0024 9A60     		str	r2, [r3, #8]
 314:../Generated_Code/GPIO1.c ****         ((GPIO1_TPortValue)GPIO1_DRVEN_MASK)
 315:../Generated_Code/GPIO1.c ****         & ((GPIO1_TPortValue)(Mask << GPIO1_DRVEN_START_BIT))
 316:../Generated_Code/GPIO1.c ****       );
 317:../Generated_Code/GPIO1.c ****       break;
 304              		.loc 1 317 0
 305 0026 08E0     		b	.L21
 306              	.L24:
 318:../Generated_Code/GPIO1.c ****     }
 319:../Generated_Code/GPIO1.c ****     case RESETB: {                     /* bit field #1 */
 320:../Generated_Code/GPIO1.c ****       GPIO_PDD_ClearPortDataOutputMask(GPIO1_MODULE_BASE_ADDRESS,
 307              		.loc 1 320 0
 308 0028 054B     		ldr	r3, .L27
 309 002a 7A68     		ldr	r2, [r7, #4]
 310 002c 5103     		lsl	r1, r2, #13
 311 002e 8022     		mov	r2, #128
 312 0030 9201     		lsl	r2, r2, #6
 313 0032 0A40     		and	r2, r1
 314 0034 9A60     		str	r2, [r3, #8]
 321:../Generated_Code/GPIO1.c ****         ((GPIO1_TPortValue)GPIO1_RESETB_MASK)
 322:../Generated_Code/GPIO1.c ****         & ((GPIO1_TPortValue)(Mask << GPIO1_RESETB_START_BIT))
 323:../Generated_Code/GPIO1.c ****       );
 324:../Generated_Code/GPIO1.c ****       break;
 315              		.loc 1 324 0
 316 0036 00E0     		b	.L21
 317              	.L26:
 325:../Generated_Code/GPIO1.c ****     }
 326:../Generated_Code/GPIO1.c ****     default:
 327:../Generated_Code/GPIO1.c ****       break;                           /* Invalid Field is not treated, result is undefined */
 318              		.loc 1 327 0
 319 0038 C046     		mov	r8, r8
 320              	.L21:
 328:../Generated_Code/GPIO1.c ****   } /* switch (Field) */
 329:../Generated_Code/GPIO1.c **** }
 321              		.loc 1 329 0
 322 003a BD46     		mov	sp, r7
 323 003c 04B0     		add	sp, sp, #16
 324              		@ sp needed for prologue
 325 003e 80BD     		pop	{r7, pc}
 326              	.L28:
 327              		.align	2
 328              	.L27:
 329 0040 80F00FF8 		.word	-133173120
 330              		.cfi_endproc
 331              	.LFE3:
 333              		.section	.text.GPIO1_SetFieldBits,"ax",%progbits
 334              		.align	2
 335              		.global	GPIO1_SetFieldBits
 336              		.code	16
 337              		.thumb_func
 339              	GPIO1_SetFieldBits:
 340              	.LFB4:
 330:../Generated_Code/GPIO1.c **** 
 331:../Generated_Code/GPIO1.c **** /*
 332:../Generated_Code/GPIO1.c **** ** ===================================================================
 333:../Generated_Code/GPIO1.c **** **     Method      :  GPIO1_SetFieldBits (component GPIO_LDD)
 334:../Generated_Code/GPIO1.c **** */
 335:../Generated_Code/GPIO1.c **** /*!
 336:../Generated_Code/GPIO1.c **** **     @brief
 337:../Generated_Code/GPIO1.c **** **         This method drives the specified bits of the specified bit
 338:../Generated_Code/GPIO1.c **** **         field to the active level.
 339:../Generated_Code/GPIO1.c **** **     @param
 340:../Generated_Code/GPIO1.c **** **         DeviceDataPtr   - Device data structure
 341:../Generated_Code/GPIO1.c **** **                           pointer returned by [Init] method.
 342:../Generated_Code/GPIO1.c **** **     @param
 343:../Generated_Code/GPIO1.c **** **         Field           - Bit field to write. Bit fields are
 344:../Generated_Code/GPIO1.c **** **                           defined during design time and for each bit
 345:../Generated_Code/GPIO1.c **** **                           field there is a generated constant.
 346:../Generated_Code/GPIO1.c **** **     @param
 347:../Generated_Code/GPIO1.c **** **         Mask            - Aligned mask of bits to setting the
 348:../Generated_Code/GPIO1.c **** **                           active level. Each field pin has
 349:../Generated_Code/GPIO1.c **** **                           corresponding bit in the mask. Bit value 0
 350:../Generated_Code/GPIO1.c **** **                           means not selected bit, bit value 1 means
 351:../Generated_Code/GPIO1.c **** **                           selected bit. The bit 0 corresponds with
 352:../Generated_Code/GPIO1.c **** **                           the pin which has index 0 within the given
 353:../Generated_Code/GPIO1.c **** **                           bit field, the bit 1 corresponds with the
 354:../Generated_Code/GPIO1.c **** **                           pin which has index 1 within the given bit
 355:../Generated_Code/GPIO1.c **** **                           field, etc.
 356:../Generated_Code/GPIO1.c **** */
 357:../Generated_Code/GPIO1.c **** /* ===================================================================*/
 358:../Generated_Code/GPIO1.c **** void GPIO1_SetFieldBits(LDD_TDeviceData *DeviceDataPtr, LDD_GPIO_TBitField Field, GPIO1_TFieldValue
 359:../Generated_Code/GPIO1.c **** {
 341              		.loc 1 359 0
 342              		.cfi_startproc
 343 0000 80B5     		push	{r7, lr}
 344              	.LCFI12:
 345              		.cfi_def_cfa_offset 8
 346              		.cfi_offset 7, -8
 347              		.cfi_offset 14, -4
 348 0002 84B0     		sub	sp, sp, #16
 349              	.LCFI13:
 350              		.cfi_def_cfa_offset 24
 351 0004 00AF     		add	r7, sp, #0
 352              	.LCFI14:
 353              		.cfi_def_cfa_register 7
 354 0006 F860     		str	r0, [r7, #12]
 355 0008 B960     		str	r1, [r7, #8]
 356 000a 7A60     		str	r2, [r7, #4]
 360:../Generated_Code/GPIO1.c ****   (void)DeviceDataPtr;                 /* Parameter is not used, suppress unused argument warning *
 361:../Generated_Code/GPIO1.c ****   switch (Field) {                     /* no break */
 357              		.loc 1 361 0
 358 000c BB68     		ldr	r3, [r7, #8]
 359 000e 002B     		cmp	r3, #0
 360 0010 02D0     		beq	.L31
 361 0012 012B     		cmp	r3, #1
 362 0014 08D0     		beq	.L32
 363 0016 0FE0     		b	.L34
 364              	.L31:
 362:../Generated_Code/GPIO1.c ****     case DRVEN: {                      /* bit field #0 */
 363:../Generated_Code/GPIO1.c ****       GPIO_PDD_SetPortDataOutputMask(GPIO1_MODULE_BASE_ADDRESS,
 365              		.loc 1 363 0
 366 0018 094B     		ldr	r3, .L35
 367 001a 7A68     		ldr	r2, [r7, #4]
 368 001c 1103     		lsl	r1, r2, #12
 369 001e 8022     		mov	r2, #128
 370 0020 5201     		lsl	r2, r2, #5
 371 0022 0A40     		and	r2, r1
 372 0024 5A60     		str	r2, [r3, #4]
 364:../Generated_Code/GPIO1.c ****         ((GPIO1_TPortValue)GPIO1_DRVEN_MASK)
 365:../Generated_Code/GPIO1.c ****         & ((GPIO1_TPortValue)(Mask << GPIO1_DRVEN_START_BIT))
 366:../Generated_Code/GPIO1.c ****       );
 367:../Generated_Code/GPIO1.c ****       break;
 373              		.loc 1 367 0
 374 0026 08E0     		b	.L29
 375              	.L32:
 368:../Generated_Code/GPIO1.c ****     }
 369:../Generated_Code/GPIO1.c ****     case RESETB: {                     /* bit field #1 */
 370:../Generated_Code/GPIO1.c ****       GPIO_PDD_SetPortDataOutputMask(GPIO1_MODULE_BASE_ADDRESS,
 376              		.loc 1 370 0
 377 0028 054B     		ldr	r3, .L35
 378 002a 7A68     		ldr	r2, [r7, #4]
 379 002c 5103     		lsl	r1, r2, #13
 380 002e 8022     		mov	r2, #128
 381 0030 9201     		lsl	r2, r2, #6
 382 0032 0A40     		and	r2, r1
 383 0034 5A60     		str	r2, [r3, #4]
 371:../Generated_Code/GPIO1.c ****         ((GPIO1_TPortValue)GPIO1_RESETB_MASK)
 372:../Generated_Code/GPIO1.c ****         & ((GPIO1_TPortValue)(Mask << GPIO1_RESETB_START_BIT))
 373:../Generated_Code/GPIO1.c ****       );
 374:../Generated_Code/GPIO1.c ****       break;
 384              		.loc 1 374 0
 385 0036 00E0     		b	.L29
 386              	.L34:
 375:../Generated_Code/GPIO1.c ****     }
 376:../Generated_Code/GPIO1.c ****     default:
 377:../Generated_Code/GPIO1.c ****       break;                           /* Invalid Field is not treated, result is undefined */
 387              		.loc 1 377 0
 388 0038 C046     		mov	r8, r8
 389              	.L29:
 378:../Generated_Code/GPIO1.c ****   } /* switch (Field) */
 379:../Generated_Code/GPIO1.c **** }
 390              		.loc 1 379 0
 391 003a BD46     		mov	sp, r7
 392 003c 04B0     		add	sp, sp, #16
 393              		@ sp needed for prologue
 394 003e 80BD     		pop	{r7, pc}
 395              	.L36:
 396              		.align	2
 397              	.L35:
 398 0040 80F00FF8 		.word	-133173120
 399              		.cfi_endproc
 400              	.LFE4:
 402              		.section	.text.GPIO1_ToggleFieldBits,"ax",%progbits
 403              		.align	2
 404              		.global	GPIO1_ToggleFieldBits
 405              		.code	16
 406              		.thumb_func
 408              	GPIO1_ToggleFieldBits:
 409              	.LFB5:
 380:../Generated_Code/GPIO1.c **** 
 381:../Generated_Code/GPIO1.c **** /*
 382:../Generated_Code/GPIO1.c **** ** ===================================================================
 383:../Generated_Code/GPIO1.c **** **     Method      :  GPIO1_ToggleFieldBits (component GPIO_LDD)
 384:../Generated_Code/GPIO1.c **** */
 385:../Generated_Code/GPIO1.c **** /*!
 386:../Generated_Code/GPIO1.c **** **     @brief
 387:../Generated_Code/GPIO1.c **** **         This method inverts the specified bits of the specified bit
 388:../Generated_Code/GPIO1.c **** **         field to other level.
 389:../Generated_Code/GPIO1.c **** **     @param
 390:../Generated_Code/GPIO1.c **** **         DeviceDataPtr   - Device data structure
 391:../Generated_Code/GPIO1.c **** **                           pointer returned by [Init] method.
 392:../Generated_Code/GPIO1.c **** **     @param
 393:../Generated_Code/GPIO1.c **** **         Field           - Bit field to write. Bit fields are
 394:../Generated_Code/GPIO1.c **** **                           defined during design time and for each bit
 395:../Generated_Code/GPIO1.c **** **                           field there is a generated constant.
 396:../Generated_Code/GPIO1.c **** **     @param
 397:../Generated_Code/GPIO1.c **** **         Mask            - Aligned mask of bits to inverting the
 398:../Generated_Code/GPIO1.c **** **                           current level. Each field pin has
 399:../Generated_Code/GPIO1.c **** **                           corresponding bit in the mask. Bit value 0
 400:../Generated_Code/GPIO1.c **** **                           means not selected bit, bit value 1 means
 401:../Generated_Code/GPIO1.c **** **                           selected bit. The bit 0 corresponds with
 402:../Generated_Code/GPIO1.c **** **                           the pin which has index 0 within the given
 403:../Generated_Code/GPIO1.c **** **                           bit field, the bit 1 corresponds with the
 404:../Generated_Code/GPIO1.c **** **                           pin which has index 1 within the given bit
 405:../Generated_Code/GPIO1.c **** **                           field, etc.
 406:../Generated_Code/GPIO1.c **** */
 407:../Generated_Code/GPIO1.c **** /* ===================================================================*/
 408:../Generated_Code/GPIO1.c **** void GPIO1_ToggleFieldBits(LDD_TDeviceData *DeviceDataPtr, LDD_GPIO_TBitField Field, GPIO1_TFieldVa
 409:../Generated_Code/GPIO1.c **** {
 410              		.loc 1 409 0
 411              		.cfi_startproc
 412 0000 80B5     		push	{r7, lr}
 413              	.LCFI15:
 414              		.cfi_def_cfa_offset 8
 415              		.cfi_offset 7, -8
 416              		.cfi_offset 14, -4
 417 0002 84B0     		sub	sp, sp, #16
 418              	.LCFI16:
 419              		.cfi_def_cfa_offset 24
 420 0004 00AF     		add	r7, sp, #0
 421              	.LCFI17:
 422              		.cfi_def_cfa_register 7
 423 0006 F860     		str	r0, [r7, #12]
 424 0008 B960     		str	r1, [r7, #8]
 425 000a 7A60     		str	r2, [r7, #4]
 410:../Generated_Code/GPIO1.c ****   (void)DeviceDataPtr;                 /* Parameter is not used, suppress unused argument warning *
 411:../Generated_Code/GPIO1.c ****   switch (Field) {                     /* no break */
 426              		.loc 1 411 0
 427 000c BB68     		ldr	r3, [r7, #8]
 428 000e 002B     		cmp	r3, #0
 429 0010 02D0     		beq	.L39
 430 0012 012B     		cmp	r3, #1
 431 0014 08D0     		beq	.L40
 432 0016 0FE0     		b	.L42
 433              	.L39:
 412:../Generated_Code/GPIO1.c ****     case DRVEN: {                      /* bit field #0 */
 413:../Generated_Code/GPIO1.c ****       GPIO_PDD_TogglePortDataOutputMask(GPIO1_MODULE_BASE_ADDRESS,
 434              		.loc 1 413 0
 435 0018 094B     		ldr	r3, .L43
 436 001a 7A68     		ldr	r2, [r7, #4]
 437 001c 1103     		lsl	r1, r2, #12
 438 001e 8022     		mov	r2, #128
 439 0020 5201     		lsl	r2, r2, #5
 440 0022 0A40     		and	r2, r1
 441 0024 DA60     		str	r2, [r3, #12]
 414:../Generated_Code/GPIO1.c ****         ((GPIO1_TPortValue)GPIO1_DRVEN_MASK)
 415:../Generated_Code/GPIO1.c ****         & ((GPIO1_TPortValue)(Mask << GPIO1_DRVEN_START_BIT))
 416:../Generated_Code/GPIO1.c ****       );
 417:../Generated_Code/GPIO1.c ****       break;
 442              		.loc 1 417 0
 443 0026 08E0     		b	.L37
 444              	.L40:
 418:../Generated_Code/GPIO1.c ****     }
 419:../Generated_Code/GPIO1.c ****     case RESETB: {                     /* bit field #1 */
 420:../Generated_Code/GPIO1.c ****       GPIO_PDD_TogglePortDataOutputMask(GPIO1_MODULE_BASE_ADDRESS,
 445              		.loc 1 420 0
 446 0028 054B     		ldr	r3, .L43
 447 002a 7A68     		ldr	r2, [r7, #4]
 448 002c 5103     		lsl	r1, r2, #13
 449 002e 8022     		mov	r2, #128
 450 0030 9201     		lsl	r2, r2, #6
 451 0032 0A40     		and	r2, r1
 452 0034 DA60     		str	r2, [r3, #12]
 421:../Generated_Code/GPIO1.c ****         ((GPIO1_TPortValue)GPIO1_RESETB_MASK)
 422:../Generated_Code/GPIO1.c ****         & ((GPIO1_TPortValue)(Mask << GPIO1_RESETB_START_BIT))
 423:../Generated_Code/GPIO1.c ****       );
 424:../Generated_Code/GPIO1.c ****       break;
 453              		.loc 1 424 0
 454 0036 00E0     		b	.L37
 455              	.L42:
 425:../Generated_Code/GPIO1.c ****     }
 426:../Generated_Code/GPIO1.c ****     default:
 427:../Generated_Code/GPIO1.c ****       break;                           /* Invalid Field is not treated, result is undefined */
 456              		.loc 1 427 0
 457 0038 C046     		mov	r8, r8
 458              	.L37:
 428:../Generated_Code/GPIO1.c ****   } /* switch (Field) */
 429:../Generated_Code/GPIO1.c **** }
 459              		.loc 1 429 0
 460 003a BD46     		mov	sp, r7
 461 003c 04B0     		add	sp, sp, #16
 462              		@ sp needed for prologue
 463 003e 80BD     		pop	{r7, pc}
 464              	.L44:
 465              		.align	2
 466              	.L43:
 467 0040 80F00FF8 		.word	-133173120
 468              		.cfi_endproc
 469              	.LFE5:
 471              		.text
 472              	.Letext0:
 473              		.file 2 "C:/Freescale/CW MCU v10.7/MCU/ARM_GCC_Support/ewl/EWL_C/include/cstdint"
 474              		.file 3 "../Generated_Code/PE_Types.h"
 475              		.file 4 "C:/Freescale/CW MCU v10.7/MCU/ProcessorExpert/lib/Kinetis/iofiles/MKL25Z4.h"
 476              		.file 5 "../Generated_Code/GPIO1.h"
DEFINED SYMBOLS
                            *ABS*:00000000 GPIO1.c
C:\Users\SAE_LP1\AppData\Local\Temp\ccMxhY5R.s:18     .bss.DeviceDataPrv__DEFAULT_RTOS_ALLOC:00000000 $d
C:\Users\SAE_LP1\AppData\Local\Temp\ccMxhY5R.s:21     .bss.DeviceDataPrv__DEFAULT_RTOS_ALLOC:00000000 DeviceDataPrv__DEFAULT_RTOS_ALLOC
C:\Users\SAE_LP1\AppData\Local\Temp\ccMxhY5R.s:24     .text.GPIO1_Init:00000000 $t
C:\Users\SAE_LP1\AppData\Local\Temp\ccMxhY5R.s:29     .text.GPIO1_Init:00000000 GPIO1_Init
C:\Users\SAE_LP1\AppData\Local\Temp\ccMxhY5R.s:103    .text.GPIO1_Init:00000060 $d
C:\Users\SAE_LP1\AppData\Local\Temp\ccMxhY5R.s:113    .text.GPIO1_SetFieldValue:00000000 $t
C:\Users\SAE_LP1\AppData\Local\Temp\ccMxhY5R.s:118    .text.GPIO1_SetFieldValue:00000000 GPIO1_SetFieldValue
C:\Users\SAE_LP1\AppData\Local\Temp\ccMxhY5R.s:187    .text.GPIO1_SetFieldValue:00000054 $d
C:\Users\SAE_LP1\AppData\Local\Temp\ccMxhY5R.s:194    .text.GPIO1_GetFieldValue:00000000 $t
C:\Users\SAE_LP1\AppData\Local\Temp\ccMxhY5R.s:199    .text.GPIO1_GetFieldValue:00000000 GPIO1_GetFieldValue
C:\Users\SAE_LP1\AppData\Local\Temp\ccMxhY5R.s:260    .text.GPIO1_GetFieldValue:00000040 $d
C:\Users\SAE_LP1\AppData\Local\Temp\ccMxhY5R.s:265    .text.GPIO1_ClearFieldBits:00000000 $t
C:\Users\SAE_LP1\AppData\Local\Temp\ccMxhY5R.s:270    .text.GPIO1_ClearFieldBits:00000000 GPIO1_ClearFieldBits
C:\Users\SAE_LP1\AppData\Local\Temp\ccMxhY5R.s:329    .text.GPIO1_ClearFieldBits:00000040 $d
C:\Users\SAE_LP1\AppData\Local\Temp\ccMxhY5R.s:334    .text.GPIO1_SetFieldBits:00000000 $t
C:\Users\SAE_LP1\AppData\Local\Temp\ccMxhY5R.s:339    .text.GPIO1_SetFieldBits:00000000 GPIO1_SetFieldBits
C:\Users\SAE_LP1\AppData\Local\Temp\ccMxhY5R.s:398    .text.GPIO1_SetFieldBits:00000040 $d
C:\Users\SAE_LP1\AppData\Local\Temp\ccMxhY5R.s:403    .text.GPIO1_ToggleFieldBits:00000000 $t
C:\Users\SAE_LP1\AppData\Local\Temp\ccMxhY5R.s:408    .text.GPIO1_ToggleFieldBits:00000000 GPIO1_ToggleFieldBits
C:\Users\SAE_LP1\AppData\Local\Temp\ccMxhY5R.s:467    .text.GPIO1_ToggleFieldBits:00000040 $d
                     .debug_frame:00000010 $d
                           .group:00000000 wm4.1.aba60cd3b17efbc2d56a1d9fc6f583a6
                           .group:00000000 wm4.ewl_c_version.h.9.0bcb57d6a3f89baae1f9b121de2772f5
                           .group:00000000 wm4.os_enum.h.9.03d7426d632bb1a35ec1708754c41daf
                           .group:00000000 wm4.ansi_prefix.ARM.h.13.2dd306b0ccbe86124098bfe3a0b58d88
                           .group:00000000 wm4.ansi_parms.h.64.05090287ebda70c0d79c02b050dca090
                           .group:00000000 wm4.limits_api.h.9.bc6daa20b3abae2bba6c512044e73b43
                           .group:00000000 wm4.ewl_lib_ext1.h.14.f9b057cc049671136093886db2a3473f
                           .group:00000000 wm4.cstdint.137.268b37259d2d366c21376cbd280e10d7
                           .group:00000000 wm4.PE_Types.h.69.0f70e9553c29a787d42fe2ac9dbd945d
                           .group:00000000 wm4.PE_Error.h.60.6ccf96637e85421388d147a5dcbc3621
                           .group:00000000 wm4.PE_Const.h.61.443ca05468cb0c6bf080e06394e39146
                           .group:00000000 wm4.MKL25Z4.h.61.adbdc31ae5ef570825ab0667cccdf447
                           .group:00000000 wm4.PDD_Types.h.5.e0b4125fe5201c5e1f688b067f4f0d54
                           .group:00000000 wm4.GPIO_PDD.h.122.b35a34a6eaffa5c552aafe5692260473
                           .group:00000000 wm4.PORT_PDD.h.9.e24435d4c3cbcc67beceb9e359966485
                           .group:00000000 wm4.Cpu.h.64.f81ea9fa0d5dd4235933d360f41084fe
                           .group:00000000 wm4.GPIO1.h.124.b7ee380ef904b55819a5c75398eefb42

UNDEFINED SYMBOLS
PE_LDD_DeviceDataList
